target datalayout = "e-m:e-p270:32:32-p271:32:32-p272:64:64-i64:64-i128:128-f80:128-n8:16:32:64-S128"
target triple = "x86_64-pc-linux-gnu"

%struct.darktable_t = type { %struct.dt_codepath_t, i32, i32, ptr, ptr, ptr, ptr, ptr, ptr, ptr, ptr, ptr, ptr, ptr, ptr, ptr, ptr, ptr, ptr, ptr, ptr, ptr, ptr, ptr, ptr, ptr, ptr, ptr, ptr, ptr, [64 x %struct.dt_pthread_mutex_t], %struct.dt_pthread_mutex_t, %struct.dt_pthread_mutex_t, %struct.dt_pthread_mutex_t, %struct.dt_pthread_mutex_t, %struct.dt_pthread_mutex_t, ptr, ptr, ptr, ptr, ptr, ptr, ptr, ptr, ptr, ptr, ptr, ptr, ptr, %struct.dt_lua_state_t, ptr, double, ptr, i32, [47 x i32], i32, i32, ptr, ptr, %struct.dt_sys_resources_t, %struct.dt_backthumb_t, %struct.dt_gimp_t }
%struct.dt_codepath_t = type { i8, [3 x i8] }
%struct.dt_pthread_mutex_t = type { %union.pthread_mutex_t }
%union.pthread_mutex_t = type { %struct.__pthread_mutex_s }
%struct.__pthread_mutex_s = type { i32, i32, i32, i32, i32, i16, i16, %struct.__pthread_internal_list }
%struct.__pthread_internal_list = type { ptr, ptr }
%struct.dt_lua_state_t = type { i32 }
%struct.dt_sys_resources_t = type { i64, i64, ptr, ptr, i32 }
%struct.dt_backthumb_t = type { double, double, i32, i32, i32, i32 }
%struct.dt_gimp_t = type { i32, ptr, ptr, i32, i32 }
%struct._GtkDarktableResetLabel = type { %struct._GtkEventBox, ptr, ptr, i32, i32 }
%struct._GtkEventBox = type { %struct._GtkBin, ptr }
%struct._GtkBin = type { %struct._GtkContainer, ptr }
%struct._GtkContainer = type { %struct._GtkWidget, ptr }
%struct._GtkWidget = type { %struct._GObject, ptr }
%struct._GObject = type { %struct._GTypeInstance, i32, ptr }
%struct._GTypeInstance = type { ptr }
%struct.dt_iop_module_t = type { i32, ptr, ptr, ptr, ptr, ptr, ptr, ptr, ptr, ptr, ptr, ptr, ptr, ptr, ptr, ptr, ptr, ptr, ptr, ptr, ptr, ptr, ptr, ptr, ptr, ptr, ptr, ptr, ptr, ptr, ptr, ptr, ptr, ptr, ptr, ptr, ptr, ptr, ptr, ptr, ptr, ptr, ptr, ptr, ptr, ptr, ptr, ptr, ptr, ptr, ptr, ptr, ptr, ptr, ptr, ptr, ptr, [20 x i8], i32, i32, i32, i32, i32, i32, i32, [8 x i8], [4 x float], [4 x float], [4 x float], [4 x float], [4 x float], [4 x float], ptr, %struct.dt_dev_histogram_stats_t, [4 x i32], i32, i32, ptr, i32, i32, ptr, ptr, i32, ptr, %struct.dt_pthread_mutex_t, ptr, ptr, ptr, ptr, %struct.anon, ptr, ptr, ptr, ptr, ptr, ptr, ptr, i32, ptr, ptr, ptr, ptr, ptr, ptr, ptr, i32, ptr, i32, [128 x i8], i32, ptr, ptr, i32, [12 x i8] }
%struct.dt_dev_histogram_stats_t = type { i32, i64, i32, i32 }
%struct.anon = type { %struct.anon.0, %struct.anon.1 }
%struct.anon.0 = type { ptr, ptr }
%struct.anon.1 = type { ptr, i32 }
%struct._GdkEventButton = type { i32, ptr, i8, i32, double, double, ptr, i32, i32, ptr, double, double }

@darktable = external global %struct.darktable_t, align 8

; Function Attrs: nounwind uwtable
define internal i32 @_reset_label_callback(ptr noundef %0, ptr noundef %1, ptr noundef %2) #0 {
  %4 = alloca i32, align 4
  %5 = alloca ptr, align 8
  %6 = alloca ptr, align 8
  %7 = alloca ptr, align 8
  store ptr %0, ptr %5, align 8, !tbaa !20
  store ptr %1, ptr %6, align 8, !tbaa !91
  store ptr %2, ptr %7, align 8, !tbaa !19
  %8 = load ptr, ptr %6, align 8, !tbaa !91
  %9 = getelementptr inbounds nuw %struct._GdkEventButton, ptr %8, i32 0, i32 0
  %10 = load i32, ptr %9, align 8, !tbaa !93
  %11 = icmp eq i32 %10, 5
  br i1 %11, label %12, label %44

12:                                               ; preds = %3
  %13 = load ptr, ptr %5, align 8, !tbaa !20
  %14 = getelementptr inbounds nuw %struct._GtkDarktableResetLabel, ptr %13, i32 0, i32 2
  %15 = load ptr, ptr %14, align 8, !tbaa !22
  %16 = getelementptr inbounds nuw %struct.dt_iop_module_t, ptr %15, i32 0, i32 80
  %17 = load ptr, ptr %16, align 8, !tbaa !37
  %18 = load ptr, ptr %5, align 8, !tbaa !20
  %19 = getelementptr inbounds nuw %struct._GtkDarktableResetLabel, ptr %18, i32 0, i32 3
  %20 = load i32, ptr %19, align 8, !tbaa !52
  %21 = sext i32 %20 to i64
  %22 = getelementptr inbounds i8, ptr %17, i64 %21
  %23 = load ptr, ptr %5, align 8, !tbaa !20
  %24 = getelementptr inbounds nuw %struct._GtkDarktableResetLabel, ptr %23, i32 0, i32 2
  %25 = load ptr, ptr %24, align 8, !tbaa !22
  %26 = getelementptr inbounds nuw %struct.dt_iop_module_t, ptr %25, i32 0, i32 81
  %27 = load ptr, ptr %26, align 16, !tbaa !55
  %28 = load ptr, ptr %5, align 8, !tbaa !20
  %29 = getelementptr inbounds nuw %struct._GtkDarktableResetLabel, ptr %28, i32 0, i32 3
  %30 = load i32, ptr %29, align 8, !tbaa !52
  %31 = sext i32 %30 to i64
  %32 = getelementptr inbounds i8, ptr %27, i64 %31
  %33 = load ptr, ptr %5, align 8, !tbaa !20
  %34 = getelementptr inbounds nuw %struct._GtkDarktableResetLabel, ptr %33, i32 0, i32 4
  %35 = load i32, ptr %34, align 4, !tbaa !53
  %36 = sext i32 %35 to i64
  call void @llvm.memcpy.p0.p0.i64(ptr align 1 %22, ptr align 1 %32, i64 %36, i1 false)
  %37 = load ptr, ptr %5, align 8, !tbaa !20
  %38 = getelementptr inbounds nuw %struct._GtkDarktableResetLabel, ptr %37, i32 0, i32 2
  %39 = load ptr, ptr %38, align 8, !tbaa !22
  call void @dt_iop_gui_update(ptr noundef %39)
  %40 = load ptr, ptr getelementptr inbounds nuw (%struct.darktable_t, ptr @darktable, i32 0, i32 9), align 8, !tbaa !98
  %41 = load ptr, ptr %5, align 8, !tbaa !20
  %42 = getelementptr inbounds nuw %struct._GtkDarktableResetLabel, ptr %41, i32 0, i32 2
  %43 = load ptr, ptr %42, align 8, !tbaa !22
  call void @dt_dev_add_history_item(ptr noundef %40, ptr noundef %43, i32 noundef 0)
  store i32 1, ptr %4, align 4
  br label %45

44:                                               ; preds = %3
  store i32 0, ptr %4, align 4
  br label %45

45:                                               ; preds = %44, %12
  %46 = load i32, ptr %4, align 4
  ret i32 %46
}