; Function Attrs: nounwind uwtable
define internal range(i32 0, 2) i32 @_reset_label_callback(ptr noundef readonly captures(none) %0, ptr noundef readonly captures(none) %1, ptr readnone captures(none) %2) #0 {
  %4 = load i32, ptr %1, align 8, !tbaa !49
  %5 = icmp eq i32 %4, 5
  br i1 %5, label %6, label %24

6:                                                ; preds = %3
  %7 = getelementptr inbounds nuw i8, ptr %0, i64 64
  %8 = load ptr, ptr %7, align 8, !tbaa !10
  %9 = getelementptr inbounds nuw i8, ptr %8, i64 680
  %10 = load ptr, ptr %9, align 8, !tbaa !28
  %11 = getelementptr inbounds nuw i8, ptr %0, i64 72
  %12 = load i32, ptr %11, align 8, !tbaa !43
  %13 = sext i32 %12 to i64
  %14 = getelementptr inbounds i8, ptr %10, i64 %13
  %15 = getelementptr inbounds nuw i8, ptr %8, i64 688
  %16 = load ptr, ptr %15, align 16, !tbaa !46
  %17 = getelementptr inbounds i8, ptr %16, i64 %13
  %18 = getelementptr inbounds nuw i8, ptr %0, i64 76
  %19 = load i32, ptr %18, align 4, !tbaa !44
  %20 = sext i32 %19 to i64
  tail call void @llvm.memcpy.p0.p0.i64(ptr align 1 %14, ptr align 1 %17, i64 %20, i1 false)
  %21 = load ptr, ptr %7, align 8, !tbaa !10
  tail call void @dt_iop_gui_update(ptr noundef %21) #7
  %22 = load ptr, ptr getelementptr inbounds nuw (i8, ptr @darktable, i64 64), align 8, !tbaa !55
  %23 = load ptr, ptr %7, align 8, !tbaa !10
  tail call void @dt_dev_add_history_item(ptr noundef %22, ptr noundef %23, i32 noundef 0) #7
  br label %24

24:                                               ; preds = %3, %6
  %.0 = phi i32 [ 1, %6 ], [ 0, %3 ]
  ret i32 %.0
}